target datalayout = "e-m:e-p270:32:32-p271:32:32-p272:64:64-i64:64-i128:128-f80:128-n8:16:32:64-S128"
target triple = "x86_64-pc-linux-gnu"

%"class.std::__cxx11::basic_string" = type { %"struct.std::__cxx11::basic_string<char>::_Alloc_hider", i64, %union.anon }
%"struct.std::__cxx11::basic_string<char>::_Alloc_hider" = type { ptr }
%union.anon = type { i64, [8 x i8] }
%struct.pj_ctx = type <{ %"class.std::__cxx11::basic_string", i32, i32, i8, i8, [6 x i8], ptr, ptr, ptr, i32, i8, [3 x i8], i32, [4 x i8], %"class.std::__cxx11::basic_string", %"class.std::vector", ptr, ptr, ptr, %"class.std::map", i8, [7 x i8], %struct.projFileApiCallbackAndData, %"class.std::__cxx11::basic_string", %"class.std::__cxx11::basic_string", i8, [7 x i8], %"class.std::__cxx11::basic_string", %struct.projNetworkCallbacksAndData, %"class.std::__cxx11::basic_string", i8, [7 x i8], %struct.projGridChunkCache, i32, i32, i32, [4 x i8] }>
%"class.std::vector" = type { %"struct.std::_Vector_base" }
%"struct.std::_Vector_base" = type { %"struct.std::_Vector_base<std::__cxx11::basic_string<char>, std::allocator<std::__cxx11::basic_string<char>>>::_Vector_impl" }
%"struct.std::_Vector_base<std::__cxx11::basic_string<char>, std::allocator<std::__cxx11::basic_string<char>>>::_Vector_impl" = type { %"struct.std::_Vector_base<std::__cxx11::basic_string<char>, std::allocator<std::__cxx11::basic_string<char>>>::_Vector_impl_data" }
%"struct.std::_Vector_base<std::__cxx11::basic_string<char>, std::allocator<std::__cxx11::basic_string<char>>>::_Vector_impl_data" = type { ptr, ptr, ptr }
%"class.std::map" = type { %"class.std::_Rb_tree" }
%"class.std::_Rb_tree" = type { %"struct.std::_Rb_tree<std::__cxx11::basic_string<char>, std::pair<const std::__cxx11::basic_string<char>, std::__cxx11::basic_string<char>>, std::_Select1st<std::pair<const std::__cxx11::basic_string<char>, std::__cxx11::basic_string<char>>>, std::less<std::__cxx11::basic_string<char>>>::_Rb_tree_impl" }
%"struct.std::_Rb_tree<std::__cxx11::basic_string<char>, std::pair<const std::__cxx11::basic_string<char>, std::__cxx11::basic_string<char>>, std::_Select1st<std::pair<const std::__cxx11::basic_string<char>, std::__cxx11::basic_string<char>>>, std::less<std::__cxx11::basic_string<char>>>::_Rb_tree_impl" = type { [8 x i8], %"struct.std::_Rb_tree_header" }
%"struct.std::_Rb_tree_header" = type { %"struct.std::_Rb_tree_node_base", i64 }
%"struct.std::_Rb_tree_node_base" = type { i32, ptr, ptr, ptr }
%struct.projFileApiCallbackAndData = type { ptr, ptr, ptr, ptr, ptr, ptr, ptr, ptr, ptr, ptr, ptr }
%struct.projNetworkCallbacksAndData = type { i8, ptr, ptr, ptr, ptr, ptr }
%struct.projGridChunkCache = type <{ i8, [7 x i8], %"class.std::__cxx11::basic_string", i64, i32, [4 x i8] }>

; Function Attrs: mustprogress uwtable
define hidden noundef zeroext i1 @_ZN5osgeo4proj11FileManager5mkdirEP6pj_ctxPKc(ptr noundef %0, ptr noundef %1) #0 align 2 {
  %3 = alloca i1, align 1
  %4 = alloca ptr, align 8
  %5 = alloca ptr, align 8
  store ptr %0, ptr %4, align 8, !tbaa !44
  store ptr %1, ptr %5, align 8, !tbaa !30
  %6 = load ptr, ptr %4, align 8, !tbaa !44
  %7 = getelementptr inbounds nuw %struct.pj_ctx, ptr %6, i32 0, i32 22
  %8 = getelementptr inbounds nuw %struct.projFileApiCallbackAndData, ptr %7, i32 0, i32 7
  %9 = load ptr, ptr %8, align 8, !tbaa !94
  %10 = icmp ne ptr %9, null
  br i1 %10, label %11, label %24

11:                                               ; preds = %2
  %12 = load ptr, ptr %4, align 8, !tbaa !44
  %13 = getelementptr inbounds nuw %struct.pj_ctx, ptr %12, i32 0, i32 22
  %14 = getelementptr inbounds nuw %struct.projFileApiCallbackAndData, ptr %13, i32 0, i32 7
  %15 = load ptr, ptr %14, align 8, !tbaa !94
  %16 = load ptr, ptr %4, align 8, !tbaa !44
  %17 = load ptr, ptr %5, align 8, !tbaa !30
  %18 = load ptr, ptr %4, align 8, !tbaa !44
  %19 = getelementptr inbounds nuw %struct.pj_ctx, ptr %18, i32 0, i32 22
  %20 = getelementptr inbounds nuw %struct.projFileApiCallbackAndData, ptr %19, i32 0, i32 10
  %21 = load ptr, ptr %20, align 8, !tbaa !80
  %22 = call noundef i32 %15(ptr noundef %16, ptr noundef %17, ptr noundef %21)
  %23 = icmp ne i32 %22, 0
  store i1 %23, ptr %3, align 1
  br label %28

24:                                               ; preds = %2
  %25 = load ptr, ptr %5, align 8, !tbaa !30
  %26 = call i32 @mkdir(ptr noundef %25, i32 noundef 493) #11
  %27 = icmp eq i32 %26, 0
  store i1 %27, ptr %3, align 1
  br label %28

28:                                               ; preds = %24, %11
  %29 = load i1, ptr %3, align 1
  ret i1 %29
}