; Function Attrs: mustprogress uwtable
define hidden noundef zeroext i1 @_ZN5osgeo4proj11FileManager5mkdirEP6pj_ctxPKc(ptr noundef %0, ptr noundef %1) local_unnamed_addr #0 align 2 {
  %3 = getelementptr inbounds nuw i8, ptr %0, i64 280
  %4 = load ptr, ptr %3, align 8, !tbaa !89
  %.not = icmp eq ptr %4, null
  br i1 %.not, label %10, label %5

5:                                                ; preds = %2
  %6 = getelementptr inbounds nuw i8, ptr %0, i64 304
  %7 = load ptr, ptr %6, align 8, !tbaa !80
  %8 = tail call noundef i32 %4(ptr noundef nonnull %0, ptr noundef %1, ptr noundef %7)
  %9 = icmp ne i32 %8, 0
  br label %13

10:                                               ; preds = %2
  %11 = tail call i32 @mkdir(ptr noundef %1, i32 noundef 493) #30
  %12 = icmp eq i32 %11, 0
  br label %13

13:                                               ; preds = %10, %5
  %.0 = phi i1 [ %9, %5 ], [ %12, %10 ]
  ret i1 %.0
}